Certificate:
    Data:
        Version: 3 (0x2)
        Serial Number:
            14:1c:81:fc:42:a1:84:b7:c9:e0:03:36:c6:48:e6:49:1a:f7:8b:0a
        Signature Algorithm: sha384WithRSAEncryption
        Issuer: O=Private, OU=Private Certification Authority, CN=Private Root CA
        Validity
            Not Before: Jan  1 00:00:00 2000 GMT
            Not After : Jan  1 00:00:00 3000 GMT
        Subject: O=Private, OU=Private Certification Authority, CN=Private CA
        Subject Public Key Info:
            Public Key Algorithm: rsaEncryption
                RSA Public-Key: (4096 bit)
                Modulus:
                    00:c1:26:02:ab:0a:9b:1d:2a:29:8f:6a:78:92:45:
                    f5:19:40:b4:41:ca:45:fd:f1:a7:7c:08:7c:b9:5b:
                    ab:94:c2:56:b3:09:58:27:5f:6c:c7:33:db:b3:0f:
                    3a:56:aa:d9:9b:e9:5f:d0:c3:7e:9f:99:a6:08:06:
                    d7:68:c2:3a:92:f7:cc:8c:9a:f2:7f:f1:32:1e:60:
                    5e:63:9b:56:5f:f0:e0:52:43:b3:8f:37:20:c6:c7:
                    75:7f:cf:45:69:70:ed:f2:16:1d:9e:a0:3a:88:90:
                    f3:08:73:8f:ab:a1:f1:06:2d:40:0a:a2:b7:6a:de:
                    e9:8a:a7:67:e6:af:de:34:c1:39:84:a8:7d:be:b4:
                    de:4c:b2:59:dd:e1:9c:85:11:37:e8:86:e8:97:a8:
                    08:31:29:50:b9:0c:59:7c:e1:45:c2:3a:c4:fe:b4:
                    8d:7b:c3:27:86:18:ca:f1:59:ed:5d:4a:d3:eb:b5:
                    3d:fc:1d:28:d0:28:78:7b:57:41:68:e5:e2:43:9c:
                    c1:fb:0f:ce:5b:cc:5d:c7:c7:c4:c6:70:b5:58:61:
                    66:cf:ed:d8:c0:e0:b8:fc:d6:81:bf:75:ef:fd:f9:
                    77:d8:b1:be:ba:36:95:37:25:7d:18:f5:e2:73:8e:
                    cc:be:b6:76:f4:e8:1f:d7:1c:a5:a1:09:e6:9f:0c:
                    97:0d:33:26:fb:54:b2:d5:fe:e6:a4:27:da:bf:56:
                    e7:9a:ad:d7:c2:bc:5c:a9:87:c1:45:6d:76:9c:c8:
                    c0:85:2c:53:39:a8:84:8a:8b:ee:2d:16:44:65:46:
                    e3:db:73:e2:e5:f3:e3:42:aa:db:9f:b3:46:5c:bc:
                    c3:8e:34:36:d2:91:ed:a6:06:78:21:a9:17:8b:bc:
                    30:60:5a:2f:78:76:c5:a3:18:9a:4a:48:f7:4d:88:
                    76:da:7a:3c:d9:b6:20:ca:f0:45:7d:07:51:83:c6:
                    a5:60:74:42:13:7e:a5:cb:bd:8e:70:08:7d:14:1a:
                    9a:79:22:7a:9b:f0:b9:da:15:f7:a4:b8:d6:44:96:
                    04:03:16:87:9f:fb:fd:00:a8:63:a5:60:dd:1b:15:
                    51:d6:5f:8c:50:a0:4f:bf:13:c9:45:8a:38:ae:70:
                    f6:d6:04:c3:34:fe:e3:26:3c:08:f5:86:d4:25:f6:
                    44:ee:e2:13:26:98:c5:f4:19:76:be:5a:5a:56:3a:
                    1b:cc:27:78:5c:32:ed:d0:0e:a0:80:83:9e:4a:35:
                    cd:df:52:e8:3c:46:74:2c:29:16:d1:42:f5:14:00:
                    d5:05:f0:32:88:e4:8b:98:59:fa:05:d8:49:04:af:
                    0b:74:16:7b:bd:bd:62:fd:1a:67:65:65:d8:85:4b:
                    ae:9a:81
                Exponent: 65537 (0x10001)
        X509v3 extensions:
            X509v3 Basic Constraints: critical
                CA:TRUE, pathlen:1
            X509v3 Key Usage: critical
                Digital Signature, Certificate Sign, CRL Sign
            X509v3 Subject Key Identifier: 
                A7:0A:A6:86:4E:80:80:1C:07:89:9C:F3:F5:77:8B:C2:A8:C4:2E:2E
            X509v3 Authority Key Identifier: 
                keyid:E6:CA:CD:73:D6:CC:E4:53:A1:C1:20:77:CE:D0:8D:8B:A3:33:76:F1

    Signature Algorithm: sha384WithRSAEncryption
         a8:56:e5:46:a4:c4:8b:c8:98:d0:35:9d:32:6e:a4:19:b0:e7:
         b1:99:1b:2d:7d:ed:01:65:4a:16:c9:13:c6:04:85:b8:8a:a5:
         91:85:8c:60:45:1d:49:79:89:68:26:db:01:2a:8c:5d:6f:36:
         bf:bd:04:df:c4:c4:67:f6:74:b3:3f:c8:12:9b:06:24:4f:36:
         1f:62:2b:49:71:39:b8:8e:71:23:30:96:d7:82:e5:9f:77:b5:
         4f:94:52:e4:31:41:26:7c:32:13:6d:63:e5:ea:79:25:3f:b1:
         42:fd:8d:e2:3a:8f:15:1e:e0:1f:79:eb:33:b6:61:25:39:2f:
         de:43:a5:f7:c1:f6:23:c0:24:fd:c2:b8:72:1c:89:20:48:ef:
         fa:5f:1a:e4:c0:6a:fb:f7:bf:ca:ef:3c:96:0f:a6:90:0b:f6:
         88:4d:c1:33:11:ff:7f:73:26:75:cd:54:29:58:04:ce:03:cc:
         15:ed:a9:03:0c:02:f5:ae:1e:0b:d9:ac:41:0b:53:c6:6a:11:
         61:cc:b1:5c:87:59:50:e1:00:7b:1b:f3:49:ee:9c:48:a4:ab:
         74:d0:d5:a2:e5:8b:90:1f:00:f5:67:35:15:bf:d7:cc:5f:1d:
         17:55:38:00:e9:68:94:1f:b1:4c:cf:b0:35:73:b5:21:0c:27:
         c1:3a:ab:8c:f5:b0:85:a1:ef:ba:8a:ad:4c:45:82:9d:e9:6b:
         32:bd:5d:6b:c4:13:1a:2c:0b:a0:2b:cf:6d:43:25:e4:e2:9e:
         72:5e:3d:ca:1c:0c:79:d4:c0:03:fa:78:ec:ce:8b:c7:25:3a:
         3a:95:70:c0:3c:16:52:d0:bb:a9:70:c4:71:ca:78:92:2c:96:
         67:da:f1:91:4b:89:31:c4:cb:72:f6:f8:69:6e:c7:ab:a5:c5:
         18:a7:57:5e:df:5a:79:ba:a0:ae:fa:39:40:57:50:e3:5b:e8:
         a1:42:f9:d2:7d:58:2e:2f:3e:5e:61:fd:a2:da:7f:fc:66:0c:
         f4:c5:d7:34:5e:37:c8:c8:cb:c8:ac:0f:1c:14:11:86:b1:a3:
         c7:76:cf:d1:1b:c6:ff:49:85:94:73:c3:8b:5b:c9:4f:b0:26:
         2c:e2:ef:f2:3e:4e:63:39:00:df:78:e1:c5:08:1f:54:88:6c:
         d7:d2:dc:f7:0f:79:3d:dc:ea:d1:46:a7:7d:bc:85:90:b5:5e:
         22:39:e5:6b:43:b3:04:8f:ea:4f:52:1a:ba:86:67:6d:51:70:
         91:58:2d:9d:7e:58:b2:35:99:fd:83:77:34:ad:41:62:99:95:
         33:5b:29:54:ea:ac:8e:c5:cd:67:ab:08:a9:4b:67:aa:c1:4d:
         98:ee:fe:f4:3a:4a:1f:4f
-----BEGIN CERTIFICATE-----
MIIFnTCCA4WgAwIBAgIUFByB/EKhhLfJ4AM2xkjmSRr3iwowDQYJKoZIhvcNAQEM
BQAwVjEQMA4GA1UECgwHUHJpdmF0ZTEoMCYGA1UECwwfUHJpdmF0ZSBDZXJ0aWZp
Y2F0aW9uIEF1dGhvcml0eTEYMBYGA1UEAwwPUHJpdmF0ZSBSb290IENBMCAXDTAw
MDEwMTAwMDAwMFoYDzMwMDAwMTAxMDAwMDAwWjBRMRAwDgYDVQQKDAdQcml2YXRl
MSgwJgYDVQQLDB9Qcml2YXRlIENlcnRpZmljYXRpb24gQXV0aG9yaXR5MRMwEQYD
VQQDDApQcml2YXRlIENBMIICIjANBgkqhkiG9w0BAQEFAAOCAg8AMIICCgKCAgEA
wSYCqwqbHSopj2p4kkX1GUC0QcpF/fGnfAh8uVurlMJWswlYJ19sxzPbsw86VqrZ
m+lf0MN+n5mmCAbXaMI6kvfMjJryf/EyHmBeY5tWX/DgUkOzjzcgxsd1f89FaXDt
8hYdnqA6iJDzCHOPq6HxBi1ACqK3at7piqdn5q/eNME5hKh9vrTeTLJZ3eGchRE3
6Ibol6gIMSlQuQxZfOFFwjrE/rSNe8MnhhjK8VntXUrT67U9/B0o0Ch4e1dBaOXi
Q5zB+w/OW8xdx8fExnC1WGFmz+3YwOC4/NaBv3Xv/fl32LG+ujaVNyV9GPXic47M
vrZ29Ogf1xyloQnmnwyXDTMm+1Sy1f7mpCfav1bnmq3XwrxcqYfBRW12nMjAhSxT
OaiEiovuLRZEZUbj23Pi5fPjQqrbn7NGXLzDjjQ20pHtpgZ4IakXi7wwYFoveHbF
oxiaSkj3TYh22no82bYgyvBFfQdRg8alYHRCE36ly72OcAh9FBqaeSJ6m/C52hX3
pLjWRJYEAxaHn/v9AKhjpWDdGxVR1l+MUKBPvxPJRYo4rnD21gTDNP7jJjwI9YbU
JfZE7uITJpjF9Bl2vlpaVjobzCd4XDLt0A6ggIOeSjXN31LoPEZ0LCkW0UL1FADV
BfAyiOSLmFn6BdhJBK8LdBZ7vb1i/RpnZWXYhUuumoECAwEAAaNmMGQwEgYDVR0T
AQH/BAgwBgEB/wIBATAOBgNVHQ8BAf8EBAMCAYYwHQYDVR0OBBYEFKcKpoZOgIAc
B4mc8/V3i8KoxC4uMB8GA1UdIwQYMBaAFObKzXPWzORTocEgd87QjYujM3bxMA0G
CSqGSIb3DQEBDAUAA4ICAQCoVuVGpMSLyJjQNZ0ybqQZsOexmRstfe0BZUoWyRPG
BIW4iqWRhYxgRR1JeYloJtsBKoxdbza/vQTfxMRn9nSzP8gSmwYkTzYfYitJcTm4
jnEjMJbXguWfd7VPlFLkMUEmfDITbWPl6nklP7FC/Y3iOo8VHuAfeesztmElOS/e
Q6X3wfYjwCT9wrhyHIkgSO/6XxrkwGr797/K7zyWD6aQC/aITcEzEf9/cyZ1zVQp
WATOA8wV7akDDAL1rh4L2axBC1PGahFhzLFch1lQ4QB7G/NJ7pxIpKt00NWi5YuQ
HwD1ZzUVv9fMXx0XVTgA6WiUH7FMz7A1c7UhDCfBOquM9bCFoe+6iq1MRYKd6Wsy
vV1rxBMaLAugK89tQyXk4p5yXj3KHAx51MAD+njszovHJTo6lXDAPBZS0LupcMRx
yniSLJZn2vGRS4kxxMty9vhpbserpcUYp1de31p5uqCu+jlAV1DjW+ihQvnSfVgu
Lz5eYf2i2n/8Zgz0xdc0XjfIyMvIrA8cFBGGsaPHds/RG8b/SYWUc8OLW8lPsCYs
4u/yPk5jOQDfeOHFCB9UiGzX0tz3D3k93OrRRqd9vIWQtV4iOeVrQ7MEj+pPUhq6
hmdtUXCRWC2dfliyNZn9g3c0rUFimZUzWylU6qyOxc1nqwipS2eqwU2Y7v70Okof
Tw==
-----END CERTIFICATE-----
Certificate:
    Data:
        Version: 3 (0x2)
        Serial Number:
            4e:68:91:3b:fd:2f:e6:26:dc:37:b0:49:4f:31:da:fe:c7:22:ed:a9
        Signature Algorithm: sha384WithRSAEncryption
        Issuer: O=Private, OU=Private Certification Authority, CN=Private Root CA
        Validity
            Not Before: Jan  1 00:00:00 2000 GMT
            Not After : Jan  1 00:00:00 3000 GMT
        Subject: O=Private, OU=Private Certification Authority, CN=Private Root CA
        Subject Public Key Info:
            Public Key Algorithm: rsaEncryption
                RSA Public-Key: (4096 bit)
                Modulus:
                    00:aa:d6:12:b5:7f:03:0d:4f:91:53:e7:10:3c:40:
                    93:cb:8f:00:ef:bc:17:6d:9d:94:1f:10:60:da:5a:
                    c6:31:35:0f:b4:4c:34:29:e2:a7:de:97:88:3b:5a:
                    82:bf:ce:e6:f2:13:e9:20:9e:40:77:1d:1b:95:d9:
                    24:f1:00:da:f4:ea:9a:19:79:c2:43:ea:2a:45:92:
                    f0:4e:e7:b4:52:20:c6:b7:42:ac:12:10:37:0d:9f:
                    5d:43:e5:90:61:d7:33:ea:a6:e2:df:03:53:31:fd:
                    2b:d8:b0:0e:fd:de:0a:b8:31:86:c5:36:91:c3:01:
                    63:0f:9e:3f:33:db:4d:37:83:8f:17:10:1b:f6:8e:
                    5b:27:c1:a4:20:6e:15:b9:bc:e6:46:1d:e8:55:b6:
                    5c:0d:b3:99:dd:b6:cd:4e:05:15:ad:5e:e4:a4:c3:
                    3e:a0:41:6b:29:d1:5d:64:70:a0:7e:22:89:a1:34:
                    8b:3e:41:09:b0:81:7a:12:78:b7:ef:b0:df:48:cc:
                    e3:37:4c:63:61:e9:69:2c:6b:53:49:bf:04:72:55:
                    2a:b7:7a:32:4a:bb:2b:d9:82:bb:0e:7d:2f:2b:06:
                    07:d4:bf:79:2b:41:b8:ae:44:6b:2e:38:09:89:ec:
                    18:ae:2d:03:29:00:ce:f9:a9:f3:45:10:e1:a5:80:
                    d9:4a:7c:55:a3:11:43:88:cf:c8:03:b9:8a:cb:96:
                    21:f2:4c:d4:4d:3b:b7:4e:2e:c3:4c:fa:7e:de:59:
                    b4:db:a5:dc:5a:71:c0:9a:83:a1:6b:2a:cc:2d:18:
                    6b:24:1f:57:d7:8f:0a:78:47:6b:82:c8:f6:10:13:
                    56:c0:35:f6:bd:d3:eb:ae:65:98:f0:6b:74:2e:d6:
                    d1:bb:b1:a4:4a:91:6b:f2:8c:1e:64:6b:49:48:7c:
                    4f:73:47:f9:cd:90:08:28:7e:8c:a1:b1:f8:ef:0b:
                    f5:d6:a5:55:3a:66:a5:ea:3a:bd:04:a4:c8:0a:69:
                    aa:f1:b9:4a:3b:d9:4f:ae:f5:b3:0d:d8:71:a5:d4:
                    5a:49:96:db:56:d2:3a:35:99:e3:42:a8:49:ee:13:
                    24:54:c4:72:d4:f6:f9:89:e5:91:e6:c4:d0:d6:3d:
                    0a:29:91:ea:02:b7:7b:02:95:e1:a5:08:59:93:40:
                    be:d5:3d:00:60:19:ac:51:78:6f:98:43:5d:40:00:
                    53:7f:d9:90:98:32:54:0a:91:77:54:10:e3:a0:d6:
                    3f:47:29:1b:86:23:53:b8:0a:92:e3:40:2d:e3:13:
                    7b:ed:46:6c:98:a1:57:8c:ba:52:27:74:7a:1b:44:
                    bc:f7:3b:4b:e9:52:50:7c:90:5c:de:1a:00:1f:1b:
                    f5:7d:f9
                Exponent: 65537 (0x10001)
        X509v3 extensions:
            X509v3 Basic Constraints: critical
                CA:TRUE
            X509v3 Key Usage: critical
                Digital Signature, Certificate Sign, CRL Sign
            X509v3 Subject Key Identifier: 
                E6:CA:CD:73:D6:CC:E4:53:A1:C1:20:77:CE:D0:8D:8B:A3:33:76:F1
            X509v3 Authority Key Identifier: 
                keyid:E6:CA:CD:73:D6:CC:E4:53:A1:C1:20:77:CE:D0:8D:8B:A3:33:76:F1

    Signature Algorithm: sha384WithRSAEncryption
         3f:eb:73:1a:f9:54:d7:a6:9c:3b:42:3a:8f:4b:5a:ff:65:88:
         c4:d4:f3:76:ae:24:8c:7a:47:71:0a:f1:83:44:ea:3e:96:d8:
         80:26:bd:fb:8d:0e:22:a1:52:3f:8f:8a:a8:03:1f:00:48:50:
         c6:45:67:65:29:d6:4a:27:04:ca:4a:0c:6c:ce:6e:a3:33:50:
         42:b1:35:92:01:14:f6:ca:0d:c7:03:8e:27:c1:1b:99:25:62:
         0c:25:9b:7e:ea:fa:95:c2:ea:3d:93:7a:bd:1e:bd:b4:6a:9b:
         eb:af:93:c3:9c:88:02:d5:5d:9d:2f:66:7c:b6:bb:d2:cb:73:
         17:55:5c:05:79:a5:85:73:e9:49:86:2d:b2:bb:c0:4b:bd:f2:
         53:7a:f8:98:6c:9c:0e:40:bf:64:12:d7:72:fa:da:d0:82:00:
         50:24:aa:80:30:2b:72:59:93:05:52:27:43:c7:e6:b2:00:8b:
         75:39:2a:55:6f:60:51:cb:f5:81:66:dc:b7:56:a1:12:d4:5f:
         3e:81:2e:f7:d4:a2:ea:e8:54:51:df:e9:60:5f:45:6a:8e:8b:
         a7:33:b6:b8:3f:de:e0:3c:19:25:a6:36:38:d7:0b:96:c7:2f:
         5e:c2:39:28:c6:51:ac:03:be:eb:54:7a:80:56:d9:8f:92:6f:
         6e:c6:65:a2:56:3e:29:78:30:6f:50:e8:4b:27:4c:df:d8:5d:
         b0:5d:db:ca:e0:4a:61:a3:06:34:7e:02:96:4b:6d:06:a9:ab:
         2c:36:e4:14:05:c3:0e:47:c8:17:ca:68:32:ad:c2:92:cd:a0:
         55:bc:76:13:98:9c:73:3d:c4:1d:b7:ca:cc:22:36:ad:25:c7:
         3e:55:39:a6:18:2c:76:9b:cd:a1:87:90:73:4e:02:13:e7:cf:
         72:16:53:02:85:3d:4b:12:6d:a3:04:df:eb:c4:b0:d2:6d:bf:
         29:cb:e4:6b:41:26:2b:54:89:a7:de:f2:4a:34:08:57:d9:2a:
         26:dc:72:bf:3c:cd:e0:f8:e0:72:06:4d:97:ad:03:1f:d7:b8:
         8c:70:8d:f9:be:44:d4:e9:c7:23:b4:c9:fd:1f:bb:96:c5:bf:
         72:49:d7:9d:6c:7e:77:bd:7d:1e:ef:87:12:1c:6f:7f:68:aa:
         bf:14:67:da:32:da:35:1b:7d:e9:f3:95:18:44:1b:8e:9e:e0:
         8b:3f:8f:e3:d2:15:06:c8:4b:79:4d:5f:00:b9:46:5d:0b:30:
         51:50:7c:7b:6b:e7:d3:b2:35:c1:71:99:51:c7:f8:bd:53:75:
         24:67:2b:ac:8a:90:03:eb:d6:38:f4:da:7d:99:a6:56:73:27:
         e9:a8:14:5c:03:6a:27:11
-----BEGIN CERTIFICATE-----
MIIFnzCCA4egAwIBAgIUTmiRO/0v5ibcN7BJTzHa/sci7akwDQYJKoZIhvcNAQEM
BQAwVjEQMA4GA1UECgwHUHJpdmF0ZTEoMCYGA1UECwwfUHJpdmF0ZSBDZXJ0aWZp
Y2F0aW9uIEF1dGhvcml0eTEYMBYGA1UEAwwPUHJpdmF0ZSBSb290IENBMCAXDTAw
MDEwMTAwMDAwMFoYDzMwMDAwMTAxMDAwMDAwWjBWMRAwDgYDVQQKDAdQcml2YXRl
MSgwJgYDVQQLDB9Qcml2YXRlIENlcnRpZmljYXRpb24gQXV0aG9yaXR5MRgwFgYD
VQQDDA9Qcml2YXRlIFJvb3QgQ0EwggIiMA0GCSqGSIb3DQEBAQUAA4ICDwAwggIK
AoICAQCq1hK1fwMNT5FT5xA8QJPLjwDvvBdtnZQfEGDaWsYxNQ+0TDQp4qfel4g7
WoK/zubyE+kgnkB3HRuV2STxANr06poZecJD6ipFkvBO57RSIMa3QqwSEDcNn11D
5ZBh1zPqpuLfA1Mx/SvYsA793gq4MYbFNpHDAWMPnj8z2003g48XEBv2jlsnwaQg
bhW5vOZGHehVtlwNs5ndts1OBRWtXuSkwz6gQWsp0V1kcKB+IomhNIs+QQmwgXoS
eLfvsN9IzOM3TGNh6Wksa1NJvwRyVSq3ejJKuyvZgrsOfS8rBgfUv3krQbiuRGsu
OAmJ7BiuLQMpAM75qfNFEOGlgNlKfFWjEUOIz8gDuYrLliHyTNRNO7dOLsNM+n7e
WbTbpdxaccCag6FrKswtGGskH1fXjwp4R2uCyPYQE1bANfa90+uuZZjwa3Qu1tG7
saRKkWvyjB5ka0lIfE9zR/nNkAgofoyhsfjvC/XWpVU6ZqXqOr0EpMgKaarxuUo7
2U+u9bMN2HGl1FpJlttW0jo1meNCqEnuEyRUxHLU9vmJ5ZHmxNDWPQopkeoCt3sC
leGlCFmTQL7VPQBgGaxReG+YQ11AAFN/2ZCYMlQKkXdUEOOg1j9HKRuGI1O4CpLj
QC3jE3vtRmyYoVeMulIndHobRLz3O0vpUlB8kFzeGgAfG/V9+QIDAQABo2MwYTAP
BgNVHRMBAf8EBTADAQH/MA4GA1UdDwEB/wQEAwIBhjAdBgNVHQ4EFgQU5srNc9bM
5FOhwSB3ztCNi6MzdvEwHwYDVR0jBBgwFoAU5srNc9bM5FOhwSB3ztCNi6MzdvEw
DQYJKoZIhvcNAQEMBQADggIBAD/rcxr5VNemnDtCOo9LWv9liMTU83auJIx6R3EK
8YNE6j6W2IAmvfuNDiKhUj+PiqgDHwBIUMZFZ2Up1konBMpKDGzObqMzUEKxNZIB
FPbKDccDjifBG5klYgwlm37q+pXC6j2Ter0evbRqm+uvk8OciALVXZ0vZny2u9LL
cxdVXAV5pYVz6UmGLbK7wEu98lN6+JhsnA5Av2QS13L62tCCAFAkqoAwK3JZkwVS
J0PH5rIAi3U5KlVvYFHL9YFm3LdWoRLUXz6BLvfUouroVFHf6WBfRWqOi6cztrg/
3uA8GSWmNjjXC5bHL17COSjGUawDvutUeoBW2Y+Sb27GZaJWPil4MG9Q6EsnTN/Y
XbBd28rgSmGjBjR+ApZLbQapqyw25BQFww5HyBfKaDKtwpLNoFW8dhOYnHM9xB23
yswiNq0lxz5VOaYYLHabzaGHkHNOAhPnz3IWUwKFPUsSbaME3+vEsNJtvynL5GtB
JitUiafe8ko0CFfZKibccr88zeD44HIGTZetAx/XuIxwjfm+RNTpxyO0yf0fu5bF
v3JJ151sfne9fR7vhxIcb39oqr8UZ9oy2jUbfenzlRhEG46e4Is/j+PSFQbIS3lN
XwC5Rl0LMFFQfHtr59OyNcFxmVHH+L1TdSRnK6yKkAPr1jj02n2ZplZzJ+moFFwD
aicR
-----END CERTIFICATE-----
